; ModuleID = 'source-C-CXX/42/408.cpp'
source_filename = "source-C-CXX/42/408.cpp"
target datalayout = "e-m:e-p270:32:32-p271:32:32-p272:64:64-i64:64-f80:128-n8:16:32:64-S128"
target triple = "x86_64-pc-linux-gnu"

%"class.std::ios_base::Init" = type { i8 }
%"class.std::basic_istream" = type { i32 (...)**, i64, %"class.std::basic_ios" }
%"class.std::basic_ios" = type { %"class.std::ios_base", %"class.std::basic_ostream"*, i8, i8, %"class.std::basic_streambuf"*, %"class.std::ctype"*, %"class.std::num_put"*, %"class.std::num_get"* }
%"class.std::ios_base" = type { i32 (...)**, i64, i64, i32, i32, i32, %"struct.std::ios_base::_Callback_list"*, %"struct.std::ios_base::_Words", [8 x %"struct.std::ios_base::_Words"], i32, %"struct.std::ios_base::_Words"*, %"class.std::locale" }
%"struct.std::ios_base::_Callback_list" = type { %"struct.std::ios_base::_Callback_list"*, void (i32, %"class.std::ios_base"*, i32)*, i32, i32 }
%"struct.std::ios_base::_Words" = type { i8*, i64 }
%"class.std::locale" = type { %"class.std::locale::_Impl"* }
%"class.std::locale::_Impl" = type { i32, %"class.std::locale::facet"**, i64, %"class.std::locale::facet"**, i8** }
%"class.std::locale::facet" = type <{ i32 (...)**, i32, [4 x i8] }>
%"class.std::basic_ostream" = type { i32 (...)**, %"class.std::basic_ios" }
%"class.std::basic_streambuf" = type { i32 (...)**, i8*, i8*, i8*, i8*, i8*, i8*, %"class.std::locale" }
%"class.std::ctype" = type <{ %"class.std::locale::facet.base", [4 x i8], %struct.__locale_struct*, i8, [7 x i8], i32*, i32*, i16*, i8, [256 x i8], [256 x i8], i8, [6 x i8] }>
%"class.std::locale::facet.base" = type <{ i32 (...)**, i32 }>
%struct.__locale_struct = type { [13 x %struct.__locale_data*], i16*, i32*, i32*, [13 x i8*] }
%struct.__locale_data = type opaque
%"class.std::num_put" = type { %"class.std::locale::facet.base", [4 x i8] }
%"class.std::num_get" = type { %"class.std::locale::facet.base", [4 x i8] }

@_ZStL8__ioinit = internal global %"class.std::ios_base::Init" zeroinitializer, align 1
@__dso_handle = external hidden global i8
@_ZSt3cin = external global %"class.std::basic_istream", align 8
@_ZSt4cout = external global %"class.std::basic_ostream", align 8
@llvm.global_ctors = appending global [1 x { i32, void ()*, i8* }] [{ i32, void ()*, i8* } { i32 65535, void ()* @_GLOBAL__sub_I_408.cpp, i8* null }]

declare void @_ZNSt8ios_base4InitC1Ev(%"class.std::ios_base::Init"* nonnull align 1 dereferenceable(1)) unnamed_addr #0

; Function Attrs: nounwind
declare void @_ZNSt8ios_base4InitD1Ev(%"class.std::ios_base::Init"* nonnull align 1 dereferenceable(1)) unnamed_addr #1

; Function Attrs: nofree nounwind
declare i32 @__cxa_atexit(void (i8*)*, i8*, i8*) local_unnamed_addr #2

; Function Attrs: mustprogress norecurse sspstrong uwtable
define dso_local i32 @main() local_unnamed_addr #3 {
  %1 = alloca i8, align 1
  %2 = alloca i32, align 4
  %3 = bitcast i32* %2 to i8*
  call void @llvm.lifetime.start.p0i8(i64 4, i8* nonnull %3) #8
  %4 = call nonnull align 8 dereferenceable(16) %"class.std::basic_istream"* @_ZNSirsERi(%"class.std::basic_istream"* nonnull align 8 dereferenceable(16) @_ZSt3cin, i32* nonnull align 4 dereferenceable(4) %2)
  %5 = load i32, i32* %2, align 4, !tbaa !5
  %6 = icmp sgt i32 %5, 5
  br i1 %6, label %7, label %123

7:                                                ; preds = %0, %116
  %8 = phi i32 [ %117, %116 ], [ %5, %0 ]
  %9 = phi i32 [ %122, %116 ], [ -5, %0 ]
  %10 = phi i32 [ %118, %116 ], [ 0, %0 ]
  %11 = add nuw i32 %10, 1
  %12 = add nuw nsw i32 %10, 3
  %13 = and i32 %12, 1
  %14 = and i32 %11, 1
  %15 = icmp eq i32 %10, 0
  br i1 %15, label %18, label %16

16:                                               ; preds = %7
  %17 = and i32 %11, -2
  br label %39

18:                                               ; preds = %39, %7
  %19 = phi i32 [ undef, %7 ], [ %50, %39 ]
  %20 = phi i32 [ %13, %7 ], [ %50, %39 ]
  %21 = phi i32 [ 0, %7 ], [ %51, %39 ]
  %22 = icmp eq i32 %14, 0
  br i1 %22, label %28, label %23

23:                                               ; preds = %18
  %24 = add nuw nsw i32 %21, 2
  %25 = urem i32 %12, %24
  %26 = icmp eq i32 %25, 0
  %27 = select i1 %26, i32 0, i32 %20
  br label %28

28:                                               ; preds = %18, %23
  %29 = phi i32 [ %19, %18 ], [ %27, %23 ]
  %30 = sub nsw i32 %8, %12
  %31 = icmp sgt i32 %30, 2
  br i1 %31, label %32, label %79

32:                                               ; preds = %28
  %33 = add i32 %8, %9
  %34 = call i32 @llvm.smax.i32(i32 %33, i32 1)
  %35 = and i32 %34, 1
  %36 = icmp slt i32 %33, 2
  br i1 %36, label %69, label %37

37:                                               ; preds = %32
  %38 = and i32 %34, 2147483646
  br label %54

39:                                               ; preds = %39, %16
  %40 = phi i32 [ %13, %16 ], [ %50, %39 ]
  %41 = phi i32 [ 0, %16 ], [ %51, %39 ]
  %42 = phi i32 [ %17, %16 ], [ %52, %39 ]
  %43 = add nuw nsw i32 %41, 2
  %44 = urem i32 %12, %43
  %45 = icmp eq i32 %44, 0
  %46 = add nuw nsw i32 %41, 3
  %47 = urem i32 %12, %46
  %48 = icmp eq i32 %47, 0
  %49 = select i1 %48, i1 true, i1 %45
  %50 = select i1 %49, i32 0, i32 %40
  %51 = add nuw nsw i32 %41, 2
  %52 = add i32 %42, -2
  %53 = icmp eq i32 %52, 0
  br i1 %53, label %18, label %39, !llvm.loop !9

54:                                               ; preds = %54, %37
  %55 = phi i32 [ %29, %37 ], [ %65, %54 ]
  %56 = phi i32 [ 0, %37 ], [ %66, %54 ]
  %57 = phi i32 [ %38, %37 ], [ %67, %54 ]
  %58 = add nuw nsw i32 %56, 2
  %59 = srem i32 %30, %58
  %60 = icmp eq i32 %59, 0
  %61 = add nuw nsw i32 %56, 3
  %62 = srem i32 %30, %61
  %63 = icmp eq i32 %62, 0
  %64 = select i1 %63, i1 true, i1 %60
  %65 = select i1 %64, i32 0, i32 %55
  %66 = add nuw nsw i32 %56, 2
  %67 = add i32 %57, -2
  %68 = icmp eq i32 %67, 0
  br i1 %68, label %69, label %54, !llvm.loop !11

69:                                               ; preds = %54, %32
  %70 = phi i32 [ undef, %32 ], [ %65, %54 ]
  %71 = phi i32 [ %29, %32 ], [ %65, %54 ]
  %72 = phi i32 [ 0, %32 ], [ %66, %54 ]
  %73 = icmp eq i32 %35, 0
  br i1 %73, label %79, label %74

74:                                               ; preds = %69
  %75 = add nuw nsw i32 %72, 2
  %76 = srem i32 %30, %75
  %77 = icmp eq i32 %76, 0
  %78 = select i1 %77, i32 0, i32 %71
  br label %79

79:                                               ; preds = %74, %69, %28
  %80 = phi i32 [ %29, %28 ], [ %70, %69 ], [ %78, %74 ]
  %81 = icmp eq i32 %80, 1
  br i1 %81, label %82, label %116

82:                                               ; preds = %79
  %83 = call nonnull align 8 dereferenceable(8) %"class.std::basic_ostream"* @_ZNSolsEi(%"class.std::basic_ostream"* nonnull align 8 dereferenceable(8) @_ZSt4cout, i32 %12)
  call void @llvm.lifetime.start.p0i8(i64 1, i8* nonnull %1)
  store i8 32, i8* %1, align 1, !tbaa !12
  %84 = call nonnull align 8 dereferenceable(8) %"class.std::basic_ostream"* @_ZSt16__ostream_insertIcSt11char_traitsIcEERSt13basic_ostreamIT_T0_ES6_PKS3_l(%"class.std::basic_ostream"* nonnull align 8 dereferenceable(8) %83, i8* nonnull %1, i64 1)
  call void @llvm.lifetime.end.p0i8(i64 1, i8* nonnull %1)
  %85 = call nonnull align 8 dereferenceable(8) %"class.std::basic_ostream"* @_ZNSolsEi(%"class.std::basic_ostream"* nonnull align 8 dereferenceable(8) %84, i32 %30)
  %86 = bitcast %"class.std::basic_ostream"* %85 to i8**
  %87 = load i8*, i8** %86, align 8, !tbaa !13
  %88 = getelementptr i8, i8* %87, i64 -24
  %89 = bitcast i8* %88 to i64*
  %90 = load i64, i64* %89, align 8
  %91 = bitcast %"class.std::basic_ostream"* %85 to i8*
  %92 = add nsw i64 %90, 240
  %93 = getelementptr inbounds i8, i8* %91, i64 %92
  %94 = bitcast i8* %93 to %"class.std::ctype"**
  %95 = load %"class.std::ctype"*, %"class.std::ctype"** %94, align 8, !tbaa !15
  %96 = icmp eq %"class.std::ctype"* %95, null
  br i1 %96, label %97, label %98

97:                                               ; preds = %82
  call void @_ZSt16__throw_bad_castv() #9
  unreachable

98:                                               ; preds = %82
  %99 = getelementptr inbounds %"class.std::ctype", %"class.std::ctype"* %95, i64 0, i32 8
  %100 = load i8, i8* %99, align 8, !tbaa !19
  %101 = icmp eq i8 %100, 0
  br i1 %101, label %105, label %102

102:                                              ; preds = %98
  %103 = getelementptr inbounds %"class.std::ctype", %"class.std::ctype"* %95, i64 0, i32 9, i64 10
  %104 = load i8, i8* %103, align 1, !tbaa !12
  br label %111

105:                                              ; preds = %98
  call void @_ZNKSt5ctypeIcE13_M_widen_initEv(%"class.std::ctype"* nonnull align 8 dereferenceable(570) %95)
  %106 = bitcast %"class.std::ctype"* %95 to i8 (%"class.std::ctype"*, i8)***
  %107 = load i8 (%"class.std::ctype"*, i8)**, i8 (%"class.std::ctype"*, i8)*** %106, align 8, !tbaa !13
  %108 = getelementptr inbounds i8 (%"class.std::ctype"*, i8)*, i8 (%"class.std::ctype"*, i8)** %107, i64 6
  %109 = load i8 (%"class.std::ctype"*, i8)*, i8 (%"class.std::ctype"*, i8)** %108, align 8
  %110 = call signext i8 %109(%"class.std::ctype"* nonnull align 8 dereferenceable(570) %95, i8 signext 10)
  br label %111

111:                                              ; preds = %102, %105
  %112 = phi i8 [ %104, %102 ], [ %110, %105 ]
  %113 = call nonnull align 8 dereferenceable(8) %"class.std::basic_ostream"* @_ZNSo3putEc(%"class.std::basic_ostream"* nonnull align 8 dereferenceable(8) %85, i8 signext %112)
  %114 = call nonnull align 8 dereferenceable(8) %"class.std::basic_ostream"* @_ZNSo5flushEv(%"class.std::basic_ostream"* nonnull align 8 dereferenceable(8) %113)
  %115 = load i32, i32* %2, align 4, !tbaa !5
  br label %116

116:                                              ; preds = %111, %79
  %117 = phi i32 [ %115, %111 ], [ %8, %79 ]
  %118 = add nuw nsw i32 %10, 1
  %119 = sdiv i32 %117, 2
  %120 = add nsw i32 %119, -2
  %121 = icmp slt i32 %118, %120
  %122 = add nsw i32 %9, -1
  br i1 %121, label %7, label %123, !llvm.loop !21

123:                                              ; preds = %116, %0
  %124 = call i32 @_ZNSi3getEv(%"class.std::basic_istream"* nonnull align 8 dereferenceable(16) @_ZSt3cin)
  %125 = call i32 @_ZNSi3getEv(%"class.std::basic_istream"* nonnull align 8 dereferenceable(16) @_ZSt3cin)
  call void @llvm.lifetime.end.p0i8(i64 4, i8* nonnull %3) #8
  ret i32 0
}

; Function Attrs: argmemonly mustprogress nofree nosync nounwind willreturn
declare void @llvm.lifetime.start.p0i8(i64 immarg, i8* nocapture) #4

declare nonnull align 8 dereferenceable(16) %"class.std::basic_istream"* @_ZNSirsERi(%"class.std::basic_istream"* nonnull align 8 dereferenceable(16), i32* nonnull align 4 dereferenceable(4)) local_unnamed_addr #0

declare nonnull align 8 dereferenceable(8) %"class.std::basic_ostream"* @_ZNSolsEi(%"class.std::basic_ostream"* nonnull align 8 dereferenceable(8), i32) local_unnamed_addr #0

declare i32 @_ZNSi3getEv(%"class.std::basic_istream"* nonnull align 8 dereferenceable(16)) local_unnamed_addr #0

; Function Attrs: argmemonly mustprogress nofree nosync nounwind willreturn
declare void @llvm.lifetime.end.p0i8(i64 immarg, i8* nocapture) #4

declare nonnull align 8 dereferenceable(8) %"class.std::basic_ostream"* @_ZSt16__ostream_insertIcSt11char_traitsIcEERSt13basic_ostreamIT_T0_ES6_PKS3_l(%"class.std::basic_ostream"* nonnull align 8 dereferenceable(8), i8*, i64) local_unnamed_addr #0

declare nonnull align 8 dereferenceable(8) %"class.std::basic_ostream"* @_ZNSo3putEc(%"class.std::basic_ostream"* nonnull align 8 dereferenceable(8), i8 signext) local_unnamed_addr #0

declare nonnull align 8 dereferenceable(8) %"class.std::basic_ostream"* @_ZNSo5flushEv(%"class.std::basic_ostream"* nonnull align 8 dereferenceable(8)) local_unnamed_addr #0

; Function Attrs: noreturn
declare void @_ZSt16__throw_bad_castv() local_unnamed_addr #5

declare void @_ZNKSt5ctypeIcE13_M_widen_initEv(%"class.std::ctype"* nonnull align 8 dereferenceable(570)) local_unnamed_addr #0

; Function Attrs: sspstrong uwtable
define internal void @_GLOBAL__sub_I_408.cpp() #6 section ".text.startup" {
  tail call void @_ZNSt8ios_base4InitC1Ev(%"class.std::ios_base::Init"* nonnull align 1 dereferenceable(1) @_ZStL8__ioinit)
  %1 = tail call i32 @__cxa_atexit(void (i8*)* bitcast (void (%"class.std::ios_base::Init"*)* @_ZNSt8ios_base4InitD1Ev to void (i8*)*), i8* getelementptr inbounds (%"class.std::ios_base::Init", %"class.std::ios_base::Init"* @_ZStL8__ioinit, i64 0, i32 0), i8* nonnull @__dso_handle) #8
  ret void
}

; Function Attrs: nofree nosync nounwind readnone speculatable willreturn
declare i32 @llvm.smax.i32(i32, i32) #7


!llvm.module.flags = !{!0, !1, !2, !3}
!llvm.ident = !{!4}

!0 = !{i32 1, !"wchar_size", i32 4}
!1 = !{i32 7, !"PIC Level", i32 2}
!2 = !{i32 7, !"PIE Level", i32 2}
!3 = !{i32 7, !"uwtable", i32 1}
!4 = !{!"clang version 13.0.0"}
!5 = !{!6, !6, i64 0}
!6 = !{!"int", !7, i64 0}
!7 = !{!"omnipotent char", !8, i64 0}
!8 = !{!"Simple C++ TBAA"}
!9 = distinct !{!9, !10}
!10 = !{!"llvm.loop.mustprogress"}
!11 = distinct !{!11, !10}
!12 = !{!7, !7, i64 0}
!13 = !{!14, !14, i64 0}
!14 = !{!"vtable pointer", !8, i64 0}
!15 = !{!16, !17, i64 240}
!16 = !{!"_ZTSSt9basic_iosIcSt11char_traitsIcEE", !17, i64 216, !7, i64 224, !18, i64 225, !17, i64 232, !17, i64 240, !17, i64 248, !17, i64 256}
!17 = !{!"any pointer", !7, i64 0}
!18 = !{!"bool", !7, i64 0}
!19 = !{!20, !7, i64 56}
!20 = !{!"_ZTSSt5ctypeIcE", !17, i64 16, !18, i64 24, !17, i64 32, !17, i64 40, !17, i64 48, !7, i64 56, !7, i64 57, !7, i64 313, !7, i64 569}
!21 = distinct !{!21, !10}
